target datalayout = "e-m:e-p270:32:32-p271:32:32-p272:64:64-i64:64-i128:128-f80:128-n8:16:32:64-S128"
target triple = "x86_64-pc-linux-gnu"

; Function Attrs: nounwind uwtable
define i32 @cvProjFree(ptr noundef %0) #0 {
  %2 = alloca i32, align 4
  %3 = alloca ptr, align 8
  store ptr %0, ptr %3, align 8
  %4 = load ptr, ptr %3, align 8
  %5 = load ptr, ptr %4, align 8
  %6 = icmp eq ptr %5, null
  br i1 %6, label %7, label %8

7:                                                ; preds = %1
  store i32 0, ptr %2, align 4
  br label %12

8:                                                ; preds = %1
  %9 = load ptr, ptr %3, align 8
  %10 = load ptr, ptr %9, align 8
  call void @free(ptr noundef %10) #7
  %11 = load ptr, ptr %3, align 8
  store ptr null, ptr %11, align 8
  store i32 0, ptr %2, align 4
  br label %12

12:                                               ; preds = %8, %7
  %13 = load i32, ptr %2, align 4
  ret i32 %13
}