; Function Attrs: mustprogress nounwind willreturn uwtable
define noundef i32 @cvProjFree(ptr noundef captures(none) %0) local_unnamed_addr #4 {
  %2 = load ptr, ptr %0, align 8
  %3 = icmp eq ptr %2, null
  br i1 %3, label %5, label %4

4:                                                ; preds = %1
  tail call void @free(ptr noundef nonnull %2) #8
  store ptr null, ptr %0, align 8
  br label %5

5:                                                ; preds = %1, %4
  ret i32 0
}